libunity-2d-private.so.0 libunity-2d-private0 #MINVER#
 (optional=templinst)_Z17qRegisterMetaTypeI13QDBusArgumentEiPKcPT_@Base 3.6.0
 (optional=templinst)_Z17qRegisterMetaTypeI15QDBusObjectPathEiPKcPT_@Base 3.6.0
 (optional=templinst)_Z21qMetaTypeDeleteHelperI13QDBusArgumentEvPT_@Base 3.6.0
 (optional=templinst)_Z21qMetaTypeDeleteHelperI15QDBusObjectPathEvPT_@Base 3.6.0
 (optional=templinst)_Z24qMetaTypeConstructHelperI13QDBusArgumentEPvPKT_@Base 3.6.0
 (optional=templinst)_Z24qMetaTypeConstructHelperI15QDBusObjectPathEPvPKT_@Base 3.6.0
 _ZGVZN19Unity2dPanelPrivate8setStrutEPmE4atom@Base 3.6.0
 _ZN10QByteArrayD1Ev@Base 3.6.0
 _ZN10QByteArrayD2Ev@Base 3.6.0
 _ZN10QDBusErrorD1Ev@Base 3.6.0
 _ZN10QDBusErrorD2Ev@Base 3.6.0
 _ZN12Unity2dPanel10paintEventEP11QPaintEvent@Base 3.6.0
 _ZN12Unity2dPanel11qt_metacallEN11QMetaObject4CallEiPPv@Base 3.6.0
 _ZN12Unity2dPanel11qt_metacastEPKc@Base 3.6.0
 _ZN12Unity2dPanel11resizeEventEP12QResizeEvent@Base 3.6.0
 _ZN12Unity2dPanel11setUseStrutEb@Base 3.6.0
 _ZN12Unity2dPanel15useStrutChangedEb@Base 3.6.0
 _ZN12Unity2dPanel16setManualSlidingEb@Base 3.6.0
 _ZN12Unity2dPanel16staticMetaObjectE@Base 3.6.0
 _ZN12Unity2dPanel19slotWorkAreaResizedEi@Base 3.6.0
 _ZN12Unity2dPanel20manualSlidingChangedEb@Base 3.6.0
 _ZN12Unity2dPanel7setEdgeENS_4EdgeE@Base 3.6.0
 _ZN12Unity2dPanel7slideInEv@Base 3.6.0
 _ZN12Unity2dPanel8setDeltaEi@Base 3.6.0
 _ZN12Unity2dPanel8slideOutEv@Base 3.6.0
 _ZN12Unity2dPanel9addSpacerEv@Base 3.6.0
 _ZN12Unity2dPanel9addWidgetEP7QWidget@Base 3.6.0
 _ZN12Unity2dPanel9showEventEP10QShowEvent@Base 3.6.0
 _ZN12Unity2dPanelC1EP7QWidget@Base 3.6.0
 _ZN12Unity2dPanelC2EP7QWidget@Base 3.6.0
 _ZN12Unity2dPanelD0Ev@Base 3.6.0
 _ZN12Unity2dPanelD1Ev@Base 3.6.0
 _ZN12Unity2dPanelD2Ev@Base 3.6.0
 _ZN13HotkeyMonitor11qt_metacallEN11QMetaObject4CallEiPPv@Base 3.6.0
 _ZN13HotkeyMonitor11qt_metacastEPKc@Base 3.6.0
 _ZN13HotkeyMonitor12getHotkeyForEN2Qt3KeyE6QFlagsINS0_16KeyboardModifierEE@Base 3.6.0
 _ZN13HotkeyMonitor14keyEventFilterEPv@Base 3.6.0
 _ZN13HotkeyMonitor15processKeyEventEjjb@Base 3.6.0
 _ZN13HotkeyMonitor16staticMetaObjectE@Base 3.6.0
 _ZN13HotkeyMonitor8instanceEv@Base 3.6.0
 _ZN13HotkeyMonitorC1EP7QObject@Base 3.6.0
 _ZN13HotkeyMonitorC2EP7QObject@Base 3.6.0
 _ZN13HotkeyMonitorD0Ev@Base 3.6.0
 _ZN13HotkeyMonitorD1Ev@Base 3.6.0
 _ZN13HotkeyMonitorD2Ev@Base 3.6.0
 _ZN14PropertyBinder10copyAintoBEv@Base 3.6.0
 _ZN14PropertyBinder10copyBintoAEv@Base 3.6.0
 _ZN14PropertyBinder11qt_metacallEN11QMetaObject4CallEiPPv@Base 3.6.0
 _ZN14PropertyBinder11qt_metacastEPKc@Base 3.6.0
 _ZN14PropertyBinder16staticMetaObjectE@Base 3.6.0
 _ZN14PropertyBinder4bindEP7QObjectPKcS1_S3_@Base 3.6.0
 _ZN14PropertyBinder6unbindEv@Base 3.6.0
 _ZN14PropertyBinderC1EP7QObject@Base 3.6.0
 _ZN14PropertyBinderC2EP7QObject@Base 3.6.0
 _ZN14PropertyBinderD0Ev@Base 3.6.0
 _ZN14PropertyBinderD1Ev@Base 3.6.0
 _ZN14PropertyBinderD2Ev@Base 3.6.0
 _ZN17GettextTranslator11qt_metacallEN11QMetaObject4CallEiPPv@Base 3.6.0
 _ZN17GettextTranslator11qt_metacastEPKc@Base 3.6.0
 _ZN17GettextTranslator16staticMetaObjectE@Base 3.6.0
 _ZN17GettextTranslator4initERK7QStringS2_@Base 3.6.0
 _ZN17GettextTranslatorC1EP7QObject@Base 3.6.0
 _ZN17GettextTranslatorC2EP7QObject@Base 3.6.0
 _ZN17GettextTranslatorD0Ev@Base 3.6.0
 _ZN17GettextTranslatorD1Ev@Base 3.6.0
 _ZN17GettextTranslatorD2Ev@Base 3.6.0
 _ZN18GnomeSessionClient10endSessionEv@Base 3.6.0
 _ZN18GnomeSessionClient11qt_metacallEN11QMetaObject4CallEiPPv@Base 3.6.0
 _ZN18GnomeSessionClient11qt_metacastEPKc@Base 3.6.0
 _ZN18GnomeSessionClient15queryEndSessionEv@Base 3.6.0
 _ZN18GnomeSessionClient16staticMetaObjectE@Base 3.6.0
 _ZN18GnomeSessionClient23connectToSessionManagerEv@Base 3.6.0
 _ZN18GnomeSessionClient26slotRegisterClientFinishedEP23QDBusPendingCallWatcher@Base 3.6.0
 _ZN18GnomeSessionClient4stopEv@Base 3.6.0
 _ZN18GnomeSessionClientC1ERK7QStringP7QObject@Base 3.6.0
 _ZN18GnomeSessionClientC2ERK7QStringP7QObject@Base 3.6.0
 _ZN18GnomeSessionClientD0Ev@Base 3.6.0
 _ZN18GnomeSessionClientD1Ev@Base 3.6.0
 _ZN18GnomeSessionClientD2Ev@Base 3.6.0
 _ZN18Unity2dApplication11qt_metacallEN11QMetaObject4CallEiPPv@Base 3.6.0
 _ZN18Unity2dApplication11qt_metacastEPKc@Base 3.6.0
 _ZN18Unity2dApplication14x11EventFilterEP7_XEvent@Base 3.6.0
 _ZN18Unity2dApplication16staticMetaObjectE@Base 3.6.0
 _ZN18Unity2dApplication20removeX11EventFilterEP22AbstractX11EventFilter@Base 3.6.0
 _ZN18Unity2dApplication21installX11EventFilterEP22AbstractX11EventFilter@Base 3.6.0
 _ZN18Unity2dApplication8instanceEv@Base 3.6.0
 _ZN18Unity2dApplicationC1ERiPPc@Base 3.6.0
 _ZN18Unity2dApplicationC2ERiPPc@Base 3.6.0
 _ZN18Unity2dApplicationD0Ev@Base 3.6.0
 _ZN18Unity2dApplicationD1Ev@Base 3.6.0
 _ZN18Unity2dApplicationD2Ev@Base 3.6.0
 _ZN19DeclarativeMimeData11qt_metacallEN11QMetaObject4CallEiPPv@Base 3.6.0
 _ZN19DeclarativeMimeData11qt_metacastEPKc@Base 3.6.0
 _ZN19DeclarativeMimeData16staticMetaObjectE@Base 3.6.0
 _ZN19DeclarativeMimeDataC1EPK9QMimeData@Base 3.6.0
 _ZN19DeclarativeMimeDataC2EPK9QMimeData@Base 3.6.0
 _ZN19DeclarativeMimeDataD0Ev@Base 3.6.0
 _ZN19DeclarativeMimeDataD1Ev@Base 3.6.0
 _ZN19DeclarativeMimeDataD2Ev@Base 3.6.0
 _ZN22AbstractX11EventFilterD0Ev@Base 3.6.0
 _ZN22AbstractX11EventFilterD1Ev@Base 3.6.0
 _ZN22AbstractX11EventFilterD2Ev@Base 3.6.0
 _ZN24DeclarativeDragDropEvent11qt_metacallEN11QMetaObject4CallEiPPv@Base 3.6.0
 _ZN24DeclarativeDragDropEvent11qt_metacastEPKc@Base 3.6.0
 _ZN24DeclarativeDragDropEvent11setAcceptedEb@Base 3.6.0
 _ZN24DeclarativeDragDropEvent13setDropActionEN2Qt10DropActionE@Base 3.6.0
 _ZN24DeclarativeDragDropEvent16staticMetaObjectE@Base 3.6.0
 _ZN24DeclarativeDragDropEventC1EP10QDropEventP7QObject@Base 3.6.0
 _ZN24DeclarativeDragDropEventC2EP10QDropEventP7QObject@Base 3.6.0
 _ZN24DeclarativeDragDropEventD0Ev@Base 3.6.0
 _ZN24DeclarativeDragDropEventD1Ev@Base 3.6.0
 _ZN24DeclarativeDragDropEventD2Ev@Base 3.6.0
 _ZN24KeyboardModifiersMonitor11qt_metacallEN11QMetaObject4CallEiPPv@Base 3.6.0
 _ZN24KeyboardModifiersMonitor11qt_metacastEPKc@Base 3.6.0
 _ZN24KeyboardModifiersMonitor14x11EventFilterEP7_XEvent@Base 3.6.0
 _ZN24KeyboardModifiersMonitor16staticMetaObjectE@Base 3.6.0
 _ZN24KeyboardModifiersMonitor24keyboardModifiersChangedE6QFlagsIN2Qt16KeyboardModifierEE@Base 3.6.0
 _ZN24KeyboardModifiersMonitor8instanceEv@Base 3.6.0
 _ZN24KeyboardModifiersMonitorC1EP7QObject@Base 3.6.0
 _ZN24KeyboardModifiersMonitorC2EP7QObject@Base 3.6.0
 _ZN24KeyboardModifiersMonitorD0Ev@Base 3.6.0
 _ZN24KeyboardModifiersMonitorD1Ev@Base 3.6.0
 _ZN24KeyboardModifiersMonitorD2Ev@Base 3.6.0
 (optional=templinst)_ZN5QListI4QUrlE13detach_helperEi@Base 3.6.0
 (optional=templinst)_ZN5QListI4QUrlE13detach_helperEv@Base 3.6.0
 (optional=templinst)_ZN5QListI4QUrlED1Ev@Base 3.6.0
 (optional=templinst)_ZN5QListI4QUrlED2Ev@Base 3.6.0
 (optional=templinst)_ZN5QListI7QStringE13detach_helperEi@Base 3.6.0
 (optional=templinst)_ZN5QListI7QStringE13detach_helperEv@Base 3.6.0
 (optional=templinst)_ZN5QListI7QStringED1Ev@Base 3.6.0
 (optional=templinst)_ZN5QListI7QStringED2Ev@Base 3.6.0
 (optional=templinst)_ZN5QListIP22AbstractX11EventFilterE13detach_helperEi@Base 3.6.0
 (optional=templinst)_ZN5QListIP22AbstractX11EventFilterE13detach_helperEv@Base 3.6.0
 (optional=templinst)_ZN5QListIP22AbstractX11EventFilterE18detach_helper_growEii@Base 3.6.0
 (optional=templinst)_ZN5QListIP22AbstractX11EventFilterE6appendERKS1_@Base 3.6.0
 (optional=templinst)_ZN5QListIP22AbstractX11EventFilterE9removeAllERKS1_@Base 3.6.0
 (optional=templinst)_ZN5QListIP22AbstractX11EventFilterED1Ev@Base 3.6.0
 (optional=templinst)_ZN5QListIP22AbstractX11EventFilterED2Ev@Base 3.6.0
 (optional=templinst)_ZN5QListIP6HotkeyE13detach_helperEi@Base 3.6.0
 (optional=templinst)_ZN5QListIP6HotkeyE13detach_helperEv@Base 3.6.0
 (optional=templinst)_ZN5QListIP6HotkeyE18detach_helper_growEii@Base 3.6.0
 (optional=templinst)_ZN5QListIP6HotkeyE6appendERKS1_@Base 3.6.0
 (optional=templinst)_ZN5QListIP6HotkeyED1Ev@Base 3.6.0
 (optional=templinst)_ZN5QListIP6HotkeyED2Ev@Base 3.6.0
 _ZN6Hotkey10keyChangedEN2Qt3KeyE@Base 3.6.0
 _ZN6Hotkey11qt_metacallEN11QMetaObject4CallEiPPv@Base 3.6.0
 _ZN6Hotkey11qt_metacastEPKc@Base 3.6.0
 _ZN6Hotkey13connectNotifyEPKc@Base 3.6.0
 _ZN6Hotkey16disconnectNotifyEPKc@Base 3.6.0
 _ZN6Hotkey16modifiersChangedE6QFlagsIN2Qt16KeyboardModifierEE@Base 3.6.0
 _ZN6Hotkey16staticMetaObjectE@Base 3.6.0
 _ZN6Hotkey18processNativeEventEjjb@Base 3.6.0
 _ZN6Hotkey7pressedEv@Base 3.6.0
 _ZN6Hotkey8releasedEv@Base 3.6.0
 _ZN6HotkeyC1EN2Qt3KeyE6QFlagsINS0_16KeyboardModifierEEP7QObject@Base 3.6.0
 _ZN6HotkeyC2EN2Qt3KeyE6QFlagsINS0_16KeyboardModifierEEP7QObject@Base 3.6.0
 _ZN6HotkeyD0Ev@Base 3.6.0
 _ZN6HotkeyD1Ev@Base 3.6.0
 _ZN6HotkeyD2Ev@Base 3.6.0
 _ZN6QDebugD1Ev@Base 3.6.0
 _ZN6QDebugD2Ev@Base 3.6.0
 _ZN7QStringD1Ev@Base 3.6.0
 _ZN7QStringD2Ev@Base 3.6.0
 _ZN9MouseArea11qt_metacallEN11QMetaObject4CallEiPPv@Base 3.6.0
 _ZN9MouseArea11qt_metacastEPKc@Base 3.6.0
 _ZN9MouseArea11setGeometryERK5QRect@Base 3.6.0
 _ZN9MouseArea11setGeometryEiiii@Base 3.6.0
 _ZN9MouseArea14x11EventFilterEP7_XEvent@Base 3.6.0
 _ZN9MouseArea16staticMetaObjectE@Base 3.6.0
 _ZN9MouseArea6exitedEv@Base 3.6.0
 _ZN9MouseArea7enteredEv@Base 3.6.0
 _ZN9MouseAreaC1EP7QObject@Base 3.6.0
 _ZN9MouseAreaC2EP7QObject@Base 3.6.0
 _ZN9MouseAreaD0Ev@Base 3.6.0
 _ZN9MouseAreaD1Ev@Base 3.6.0
 _ZN9MouseAreaD2Ev@Base 3.6.0
 _ZNK12Unity2dPanel10metaObjectEv@Base 3.6.0
 _ZNK12Unity2dPanel13manualSlidingEv@Base 3.6.0
 _ZNK12Unity2dPanel4edgeEv@Base 3.6.0
 _ZNK12Unity2dPanel5deltaEv@Base 3.6.0
 _ZNK12Unity2dPanel8useStrutEv@Base 3.6.0
 _ZNK12Unity2dPanel9panelSizeEv@Base 3.6.0
 _ZNK13HotkeyMonitor10metaObjectEv@Base 3.6.0
 _ZNK14PropertyBinder10metaObjectEv@Base 3.6.0
 _ZNK17GettextTranslator10metaObjectEv@Base 3.6.0
 _ZNK17GettextTranslator9translateEPKcS1_S1_@Base 3.6.0
 _ZNK18GnomeSessionClient10metaObjectEv@Base 3.6.0
 _ZNK18Unity2dApplication10metaObjectEv@Base 3.6.0
 _ZNK19DeclarativeMimeData10metaObjectEv@Base 3.6.0
 _ZNK24DeclarativeDragDropEvent10dropActionEv@Base 3.6.0
 _ZNK24DeclarativeDragDropEvent10metaObjectEv@Base 3.6.0
 _ZNK24DeclarativeDragDropEvent8acceptedEv@Base 3.6.0
 _ZNK24KeyboardModifiersMonitor10metaObjectEv@Base 3.6.0
 _ZNK24KeyboardModifiersMonitor17keyboardModifiersEv@Base 3.6.0
 _ZNK6Hotkey10metaObjectEv@Base 3.6.0
 _ZNK9MouseArea10metaObjectEv@Base 3.6.0
 _ZNK9MouseArea13containsMouseEv@Base 3.6.0
 _ZNK9MouseArea8geometryEv@Base 3.6.0
 _ZTI12Unity2dPanel@Base 3.6.0
 _ZTI13HotkeyMonitor@Base 3.6.0
 _ZTI14PropertyBinder@Base 3.6.0
 _ZTI17GettextTranslator@Base 3.6.0
 _ZTI18GnomeSessionClient@Base 3.6.0
 _ZTI18Unity2dApplication@Base 3.6.0
 _ZTI19DeclarativeMimeData@Base 3.6.0
 _ZTI22AbstractX11EventFilter@Base 3.6.0
 _ZTI24DeclarativeDragDropEvent@Base 3.6.0
 _ZTI24KeyboardModifiersMonitor@Base 3.6.0
 _ZTI6Hotkey@Base 3.6.0
 _ZTI9MouseArea@Base 3.6.0
 _ZTS12Unity2dPanel@Base 3.6.0
 _ZTS13HotkeyMonitor@Base 3.6.0
 _ZTS14PropertyBinder@Base 3.6.0
 _ZTS17GettextTranslator@Base 3.6.0
 _ZTS18GnomeSessionClient@Base 3.6.0
 _ZTS18Unity2dApplication@Base 3.6.0
 _ZTS19DeclarativeMimeData@Base 3.6.0
 _ZTS22AbstractX11EventFilter@Base 3.6.0
 _ZTS24DeclarativeDragDropEvent@Base 3.6.0
 _ZTS24KeyboardModifiersMonitor@Base 3.6.0
 _ZTS6Hotkey@Base 3.6.0
 _ZTS9MouseArea@Base 3.6.0
 _ZTV12Unity2dPanel@Base 3.6.0
 _ZTV13HotkeyMonitor@Base 3.6.0
 _ZTV14PropertyBinder@Base 3.6.0
 _ZTV17GettextTranslator@Base 3.6.0
 _ZTV18GnomeSessionClient@Base 3.6.0
 _ZTV18Unity2dApplication@Base 3.6.0
 _ZTV19DeclarativeMimeData@Base 3.6.0
 _ZTV22AbstractX11EventFilter@Base 3.6.0
 _ZTV24DeclarativeDragDropEvent@Base 3.6.0
 _ZTV24KeyboardModifiersMonitor@Base 3.6.0
 _ZTV6Hotkey@Base 3.6.0
 _ZTV9MouseArea@Base 3.6.0
 (optional=templinst)_ZZN11QMetaTypeIdI13QDBusArgumentE14qt_metatype_idEvE11metatype_id@Base 3.6.0
 (optional=templinst)_ZZN11QMetaTypeIdI15QDBusObjectPathE14qt_metatype_idEvE11metatype_id@Base 3.6.0
 _ZZN19Unity2dPanelPrivate8setStrutEPmE4atom@Base 3.6.0
 (c++)"non-virtual thunk to KeyboardModifiersMonitor::x11EventFilter(_XEvent*)@Base" 3.6.0
 (c++)"non-virtual thunk to KeyboardModifiersMonitor::~KeyboardModifiersMonitor()@Base" 3.6.0
 (c++)"non-virtual thunk to MouseArea::x11EventFilter(_XEvent*)@Base" 3.6.0
 (c++)"non-virtual thunk to MouseArea::~MouseArea()@Base" 3.6.0
 (c++)"non-virtual thunk to Unity2dPanel::~Unity2dPanel()@Base" 3.6.0
