# SymbolsHelper-Confirmed: 0.1 i386
libuqpanel.so.0 libuqpanel0 #MINVER#
 _ZN12Unity2dStyleC1Ev@Base 0.1
 _ZN12Unity2dStyleC2Ev@Base 0.1
 _ZN12Unity2dStyleD0Ev@Base 0.1
 _ZN12Unity2dStyleD1Ev@Base 0.1
 _ZN18Unity2dApplication11qt_metacallEN11QMetaObject4CallEiPPv@Base 0.1
 _ZN18Unity2dApplication11qt_metacastEPKc@Base 0.1
 _ZN18Unity2dApplication14x11EventFilterEP7_XEvent@Base 0.1
 _ZN18Unity2dApplication16staticMetaObjectE@Base 0.1
 _ZN18Unity2dApplication20removeX11EventFilterEP22AbstractX11EventFilter@Base 0.1
 _ZN18Unity2dApplication21installX11EventFilterEP22AbstractX11EventFilter@Base 0.1
 _ZN18Unity2dApplication8instanceEv@Base 0.1
 _ZN18Unity2dApplicationC1ERiPPc@Base 0.1
 _ZN18Unity2dApplicationC2ERiPPc@Base 0.1
 _ZN18Unity2dApplicationD0Ev@Base 0.1
 _ZN18Unity2dApplicationD1Ev@Base 0.1
 _ZN22AbstractX11EventFilterD0Ev@Base 0.1
 _ZN22AbstractX11EventFilterD1Ev@Base 0.1
 _ZN22AbstractX11EventFilterD2Ev@Base 0.1
 _ZN24KeyboardModifiersMonitor11qt_metacallEN11QMetaObject4CallEiPPv@Base 0.1
 _ZN24KeyboardModifiersMonitor11qt_metacastEPKc@Base 0.1
 _ZN24KeyboardModifiersMonitor14x11EventFilterEP7_XEvent@Base 0.1
 _ZN24KeyboardModifiersMonitor16staticMetaObjectE@Base 0.1
 _ZN24KeyboardModifiersMonitor24keyboardModifiersChangedE6QFlagsIN2Qt16KeyboardModifierEE@Base 0.1
 _ZN24KeyboardModifiersMonitor8instanceEv@Base 0.1
 _ZN24KeyboardModifiersMonitorC1EP7QObject@Base 0.1
 _ZN24KeyboardModifiersMonitorC2EP7QObject@Base 0.1
 _ZN24KeyboardModifiersMonitorD0Ev@Base 0.1
 _ZN24KeyboardModifiersMonitorD1Ev@Base 0.1
 _ZN24KeyboardModifiersMonitorD2Ev@Base 0.1
 (optional=templinst)_ZN5QListIP22AbstractX11EventFilterE13detach_helperEi@Base 0.1
 (optional=templinst)_ZN5QListIP22AbstractX11EventFilterE6appendERKS1_@Base 0.1
 (optional=templinst)_ZN5QListIP22AbstractX11EventFilterED1Ev@Base 0.1
 _ZN7Unity2d5Panel10paintEventEP11QPaintEvent@Base 0.1
 _ZN7Unity2d5Panel11qt_metacallEN11QMetaObject4CallEiPPv@Base 0.1
 _ZN7Unity2d5Panel11qt_metacastEPKc@Base 0.1
 _ZN7Unity2d5Panel15workAreaResizedEi@Base 0.1
 _ZN7Unity2d5Panel16staticMetaObjectE@Base 0.1
 _ZN7Unity2d5Panel7setEdgeENS0_4EdgeE@Base 0.1
 _ZN7Unity2d5Panel9addSpacerEv@Base 0.1
 _ZN7Unity2d5Panel9addWidgetEP7QWidget@Base 0.1
 _ZN7Unity2d5Panel9showEventEP10QShowEvent@Base 0.1
 _ZN7Unity2d5PanelC1EP7QWidget@Base 0.1
 _ZN7Unity2d5PanelC2EP7QWidget@Base 0.1
 _ZN7Unity2d5PanelD0Ev@Base 0.1
 _ZN7Unity2d5PanelD1Ev@Base 0.1
 _ZN7Unity2d5PanelD2Ev@Base 0.1
 _ZN7Unity2d6Applet11qt_metacallEN11QMetaObject4CallEiPPv@Base 0.1
 _ZN7Unity2d6Applet11qt_metacastEPKc@Base 0.1
 _ZN7Unity2d6Applet16staticMetaObjectE@Base 0.1
 _ZN7Unity2d6AppletC1Ev@Base 0.1
 _ZN7Unity2d6AppletC2Ev@Base 0.1
 _ZN7Unity2d6AppletD0Ev@Base 0.1
 _ZN7Unity2d6AppletD1Ev@Base 0.1
 _ZN7Unity2d6AppletD2Ev@Base 0.1
 _ZNK12Unity2dStyle11drawControlEN6QStyle14ControlElementEPK12QStyleOptionP8QPainterPK7QWidget@Base 0.1
 _ZNK12Unity2dStyle11pixelMetricEN6QStyle11PixelMetricEPK12QStyleOptionPK7QWidget@Base 0.1
 _ZNK12Unity2dStyle16sizeFromContentsEN6QStyle12ContentsTypeEPK12QStyleOptionRK5QSizePK7QWidget@Base 0.1
 _ZNK12Unity2dStyle9styleHintEN6QStyle9StyleHintEPK12QStyleOptionPK7QWidgetP16QStyleHintReturn@Base 0.1
 _ZNK18Unity2dApplication10metaObjectEv@Base 0.1
 _ZNK24KeyboardModifiersMonitor10metaObjectEv@Base 0.1
 _ZNK24KeyboardModifiersMonitor17keyboardModifiersEv@Base 0.1
 _ZNK7Unity2d5Panel10metaObjectEv@Base 0.1
 _ZNK7Unity2d5Panel4edgeEv@Base 0.1
 _ZNK7Unity2d6Applet10metaObjectEv@Base 0.1
 _ZTI12Unity2dStyle@Base 0.1
 _ZTI18Unity2dApplication@Base 0.1
 _ZTI22AbstractX11EventFilter@Base 0.1
 _ZTI24KeyboardModifiersMonitor@Base 0.1
 _ZTIN7Unity2d5PanelE@Base 0.1
 _ZTIN7Unity2d6AppletE@Base 0.1
 _ZTS12Unity2dStyle@Base 0.1
 _ZTS18Unity2dApplication@Base 0.1
 _ZTS22AbstractX11EventFilter@Base 0.1
 _ZTS24KeyboardModifiersMonitor@Base 0.1
 _ZTSN7Unity2d5PanelE@Base 0.1
 _ZTSN7Unity2d6AppletE@Base 0.1
 _ZTV12Unity2dStyle@Base 0.1
 _ZTV18Unity2dApplication@Base 0.1
 _ZTV22AbstractX11EventFilter@Base 0.1
 _ZTV24KeyboardModifiersMonitor@Base 0.1
 _ZTVN7Unity2d5PanelE@Base 0.1
 _ZTVN7Unity2d6AppletE@Base 0.1
 (c++)"non-virtual thunk to KeyboardModifiersMonitor::x11EventFilter(_XEvent*)@Base" 0.1
 (c++)"non-virtual thunk to KeyboardModifiersMonitor::~KeyboardModifiersMonitor()@Base" 0.1
 (c++)"non-virtual thunk to Unity2d::Applet::~Applet()@Base" 0.1
 (c++)"non-virtual thunk to Unity2d::Panel::~Panel()@Base" 0.1
